; Function Attrs: mustprogress nounwind uwtable
define void @_ZN9grpc_core9XdsClient12ChannelState12LrsCallState6OrphanEv(ptr nocapture noundef nonnull align 8 dereferenceable(104) %this) unnamed_addr #4 align 2 personality ptr @__gxx_personality_v0 {
entry:
  %reporter_ = getelementptr inbounds i8, ptr %this, i64 96
  %0 = load ptr, ptr %reporter_, align 8
  store ptr null, ptr %reporter_, align 8
  %tobool.not.i.i = icmp eq ptr %0, null
  br i1 %tobool.not.i.i, label %_ZNSt10unique_ptrIN9grpc_core9XdsClient12ChannelState12LrsCallState8ReporterENS0_16OrphanableDeleteEE5resetEPS4_.exit, label %if.then.i.i

if.then.i.i:                                      ; preds = %entry
  %vtable.i.i.i = load ptr, ptr %0, align 8
  %1 = load ptr, ptr %vtable.i.i.i, align 8
  invoke void %1(ptr noundef nonnull align 8 dereferenceable(64) %0)
          to label %_ZNSt10unique_ptrIN9grpc_core9XdsClient12ChannelState12LrsCallState8ReporterENS0_16OrphanableDeleteEE5resetEPS4_.exit unwind label %terminate.lpad.i.i

terminate.lpad.i.i:                               ; preds = %if.then.i.i
  %2 = landingpad { ptr, i32 }
          catch ptr null
  %3 = extractvalue { ptr, i32 } %2, 0
  tail call void @__clang_call_terminate(ptr %3) #27
  unreachable

_ZNSt10unique_ptrIN9grpc_core9XdsClient12ChannelState12LrsCallState8ReporterENS0_16OrphanableDeleteEE5resetEPS4_.exit: ; preds = %entry, %if.then.i.i
  %call_ = getelementptr inbounds i8, ptr %this, i64 24
  %4 = load ptr, ptr %call_, align 8
  store ptr null, ptr %call_, align 8
  %tobool.not.i.i1 = icmp eq ptr %4, null
  br i1 %tobool.not.i.i1, label %_ZNSt10unique_ptrIN9grpc_core19XdsTransportFactory12XdsTransport13StreamingCallENS0_16OrphanableDeleteEE5resetEPS3_.exit, label %if.then.i.i2

if.then.i.i2:                                     ; preds = %_ZNSt10unique_ptrIN9grpc_core9XdsClient12ChannelState12LrsCallState8ReporterENS0_16OrphanableDeleteEE5resetEPS4_.exit
  %vtable.i.i.i3 = load ptr, ptr %4, align 8
  %5 = load ptr, ptr %vtable.i.i.i3, align 8
  invoke void %5(ptr noundef nonnull align 8 dereferenceable(8) %4)
          to label %_ZNSt10unique_ptrIN9grpc_core19XdsTransportFactory12XdsTransport13StreamingCallENS0_16OrphanableDeleteEE5resetEPS3_.exit unwind label %terminate.lpad.i.i4

terminate.lpad.i.i4:                              ; preds = %if.then.i.i2
  %6 = landingpad { ptr, i32 }
          catch ptr null
  %7 = extractvalue { ptr, i32 } %6, 0
  tail call void @__clang_call_terminate(ptr %7) #27
  unreachable

_ZNSt10unique_ptrIN9grpc_core19XdsTransportFactory12XdsTransport13StreamingCallENS0_16OrphanableDeleteEE5resetEPS3_.exit: ; preds = %_ZNSt10unique_ptrIN9grpc_core9XdsClient12ChannelState12LrsCallState8ReporterENS0_16OrphanableDeleteEE5resetEPS4_.exit, %if.then.i.i2
  ret void
}